; Function Attrs: inlinehint mustprogress nounwind uwtable
define internal fastcc void @"_ZN3ade15ExecutionEngine11PassWrapperIZN12_GLOBAL__N_117GFluidBackendImpl29addMetaSensitiveBackendPassesERNS_27ExecutionEngineSetupContextEE3$_7ED2Ev"(ptr noundef nonnull readonly align 8 dereferenceable(104) %0) unnamed_addr #6 align 2 personality ptr @__gxx_personality_v0 {
  %2 = getelementptr inbounds nuw i8, ptr %0, i64 72
  %3 = load ptr, ptr %2, align 8, !tbaa !1334
  %.not.i.i.i = icmp eq ptr %3, null
  br i1 %.not.i.i.i, label %_ZNSt6vectorIPN3ade15ExecutionEngine15LazyPassWrapperESaIS3_EED2Ev.exit, label %4

4:                                                ; preds = %1
  tail call void @_ZdlPv(ptr noundef nonnull %3) #34
  br label %_ZNSt6vectorIPN3ade15ExecutionEngine15LazyPassWrapperESaIS3_EED2Ev.exit

_ZNSt6vectorIPN3ade15ExecutionEngine15LazyPassWrapperESaIS3_EED2Ev.exit: ; preds = %1, %4
  %5 = getelementptr inbounds nuw i8, ptr %0, i64 32
  %6 = load ptr, ptr %5, align 8, !tbaa !71
  %7 = getelementptr inbounds nuw i8, ptr %0, i64 48
  %8 = icmp eq ptr %6, %7
  br i1 %8, label %_ZNKSt7__cxx1112basic_stringIcSt11char_traitsIcESaIcEE11_M_is_localEv.exit.thread.i.i.i, label %_ZNKSt7__cxx1112basic_stringIcSt11char_traitsIcESaIcEE11_M_is_localEv.exit.i.i.i

_ZNKSt7__cxx1112basic_stringIcSt11char_traitsIcESaIcEE11_M_is_localEv.exit.thread.i.i.i: ; preds = %_ZNSt6vectorIPN3ade15ExecutionEngine15LazyPassWrapperESaIS3_EED2Ev.exit
  %9 = getelementptr inbounds nuw i8, ptr %0, i64 40
  %10 = load i64, ptr %9, align 8, !tbaa !69
  %11 = icmp ult i64 %10, 16
  tail call void @llvm.assume(i1 %11)
  br label %_ZNSt7__cxx1112basic_stringIcSt11char_traitsIcESaIcEED2Ev.exit.i

_ZNKSt7__cxx1112basic_stringIcSt11char_traitsIcESaIcEE11_M_is_localEv.exit.i.i.i: ; preds = %_ZNSt6vectorIPN3ade15ExecutionEngine15LazyPassWrapperESaIS3_EED2Ev.exit
  tail call void @_ZdlPv(ptr noundef %6) #34
  br label %_ZNSt7__cxx1112basic_stringIcSt11char_traitsIcESaIcEED2Ev.exit.i

_ZNSt7__cxx1112basic_stringIcSt11char_traitsIcESaIcEED2Ev.exit.i: ; preds = %_ZNKSt7__cxx1112basic_stringIcSt11char_traitsIcESaIcEE11_M_is_localEv.exit.i.i.i, %_ZNKSt7__cxx1112basic_stringIcSt11char_traitsIcESaIcEE11_M_is_localEv.exit.thread.i.i.i
  %12 = load ptr, ptr %0, align 8, !tbaa !71
  %13 = getelementptr inbounds nuw i8, ptr %0, i64 16
  %14 = icmp eq ptr %12, %13
  br i1 %14, label %_ZNKSt7__cxx1112basic_stringIcSt11char_traitsIcESaIcEE11_M_is_localEv.exit.thread.i.i2.i, label %_ZNKSt7__cxx1112basic_stringIcSt11char_traitsIcESaIcEE11_M_is_localEv.exit.i.i1.i

_ZNKSt7__cxx1112basic_stringIcSt11char_traitsIcESaIcEE11_M_is_localEv.exit.thread.i.i2.i: ; preds = %_ZNSt7__cxx1112basic_stringIcSt11char_traitsIcESaIcEED2Ev.exit.i
  %15 = getelementptr inbounds nuw i8, ptr %0, i64 8
  %16 = load i64, ptr %15, align 8, !tbaa !69
  %17 = icmp ult i64 %16, 16
  tail call void @llvm.assume(i1 %17)
  br label %_ZN3ade15ExecutionEngine8PassDescD2Ev.exit

_ZNKSt7__cxx1112basic_stringIcSt11char_traitsIcESaIcEE11_M_is_localEv.exit.i.i1.i: ; preds = %_ZNSt7__cxx1112basic_stringIcSt11char_traitsIcESaIcEED2Ev.exit.i
  tail call void @_ZdlPv(ptr noundef %12) #34
  br label %_ZN3ade15ExecutionEngine8PassDescD2Ev.exit

_ZN3ade15ExecutionEngine8PassDescD2Ev.exit:       ; preds = %_ZNKSt7__cxx1112basic_stringIcSt11char_traitsIcESaIcEE11_M_is_localEv.exit.thread.i.i2.i, %_ZNKSt7__cxx1112basic_stringIcSt11char_traitsIcESaIcEE11_M_is_localEv.exit.i.i1.i
  ret void
}